target datalayout = "e-m:e-p270:32:32-p271:32:32-p272:64:64-i64:64-i128:128-f80:128-n8:16:32:64-S128"
target triple = "x86_64-pc-linux-gnu"

%struct.AVRational = type { i32, i32 }
%struct.DOVIContext = type { ptr, i32, %struct.AVDOVIDecoderConfigurationRecord, %struct.AVDOVIRpuDataHeader, ptr, ptr, ptr, ptr, [16 x ptr], ptr, i32 }
%struct.AVDOVIDecoderConfigurationRecord = type { i8, i8, i8, i8, i8, i8, i8, i8, i8 }
%struct.AVDOVIRpuDataHeader = type { i8, i16, i8, i8, i8, i8, i8, i8, i8, i8, i8, i8, i8, i8, i8, i8, i8 }
%struct.AVDOVIMetadata = type { i64, i64, i64, i64, i64, i32 }
%struct.DOVIExt = type { [7 x %struct.AVDOVIDmData], [25 x %struct.AVDOVIDmData], i32, i32 }
%struct.AVDOVIDmData = type { i8, %union.anon }
%union.anon = type { %struct.AVDOVIDmLevel10 }
%struct.AVDOVIDmLevel10 = type { i8, i16, i16, i8, %struct.AVColorPrimariesDesc }
%struct.AVColorPrimariesDesc = type { %struct.AVCIExy, %struct.AVPrimaryCoefficients }
%struct.AVCIExy = type { %struct.AVRational, %struct.AVRational }
%struct.AVPrimaryCoefficients = type { %struct.AVCIExy, %struct.AVCIExy, %struct.AVCIExy }

; Function Attrs: alwaysinline nounwind uwtable
define internal ptr @av_dovi_get_ext(ptr noundef %0, i32 noundef %1) #3 {
  %3 = alloca ptr, align 8
  %4 = alloca i32, align 4
  store ptr %0, ptr %3, align 8, !tbaa !23
  store i32 %1, ptr %4, align 4, !tbaa !31
  %5 = load ptr, ptr %3, align 8, !tbaa !23
  %6 = load ptr, ptr %3, align 8, !tbaa !23
  %7 = getelementptr inbounds nuw %struct.AVDOVIMetadata, ptr %6, i32 0, i32 3
  %8 = load i64, ptr %7, align 8, !tbaa !42
  %9 = getelementptr inbounds nuw i8, ptr %5, i64 %8
  %10 = load ptr, ptr %3, align 8, !tbaa !23
  %11 = getelementptr inbounds nuw %struct.AVDOVIMetadata, ptr %10, i32 0, i32 4
  %12 = load i64, ptr %11, align 8, !tbaa !27
  %13 = load i32, ptr %4, align 4, !tbaa !31
  %14 = sext i32 %13 to i64
  %15 = mul i64 %12, %14
  %16 = getelementptr inbounds nuw i8, ptr %9, i64 %15
  ret ptr %16
}

; Function Attrs: alwaysinline nounwind uwtable
define internal ptr @av_dovi_get_color(ptr noundef %0) #3 {
  %2 = alloca ptr, align 8
  store ptr %0, ptr %2, align 8, !tbaa !23
  %3 = load ptr, ptr %2, align 8, !tbaa !23
  %4 = load ptr, ptr %2, align 8, !tbaa !23
  %5 = getelementptr inbounds nuw %struct.AVDOVIMetadata, ptr %4, i32 0, i32 2
  %6 = load i64, ptr %5, align 8, !tbaa !41
  %7 = getelementptr inbounds nuw i8, ptr %3, i64 %6
  ret ptr %7
}

; Function Attrs: alwaysinline nounwind uwtable
define internal ptr @av_dovi_get_mapping(ptr noundef %0) #3 {
  %2 = alloca ptr, align 8
  store ptr %0, ptr %2, align 8, !tbaa !23
  %3 = load ptr, ptr %2, align 8, !tbaa !23
  %4 = load ptr, ptr %2, align 8, !tbaa !23
  %5 = getelementptr inbounds nuw %struct.AVDOVIMetadata, ptr %4, i32 0, i32 1
  %6 = load i64, ptr %5, align 8, !tbaa !40
  %7 = getelementptr inbounds nuw i8, ptr %3, i64 %6
  ret ptr %7
}

; Function Attrs: alwaysinline nounwind uwtable
define internal ptr @av_dovi_get_header(ptr noundef %0) #3 {
  %2 = alloca ptr, align 8
  store ptr %0, ptr %2, align 8, !tbaa !23
  %3 = load ptr, ptr %2, align 8, !tbaa !23
  %4 = load ptr, ptr %2, align 8, !tbaa !23
  %5 = getelementptr inbounds nuw %struct.AVDOVIMetadata, ptr %4, i32 0, i32 0
  %6 = load i64, ptr %5, align 8, !tbaa !39
  %7 = getelementptr inbounds nuw i8, ptr %3, i64 %6
  ret ptr %7
}

; Function Attrs: nounwind uwtable
define i32 @ff_dovi_get_metadata(ptr noundef %0, ptr noundef %1) #0 {
  %3 = alloca i32, align 4
  %4 = alloca ptr, align 8
  %5 = alloca ptr, align 8
  %6 = alloca ptr, align 8
  %7 = alloca i64, align 8
  %8 = alloca i32, align 4
  %9 = alloca ptr, align 8
  %10 = alloca i64, align 8
  %11 = alloca i32, align 4
  %12 = alloca i32, align 4
  store ptr %0, ptr %4, align 8, !tbaa !4
  store ptr %1, ptr %5, align 8, !tbaa !9
  call void @llvm.lifetime.start.p0(i64 8, ptr %6) #9
  call void @llvm.lifetime.start.p0(i64 8, ptr %7) #9
  %13 = load ptr, ptr %4, align 8, !tbaa !4
  %14 = getelementptr inbounds nuw %struct.DOVIContext, ptr %13, i32 0, i32 4
  %15 = load ptr, ptr %14, align 8, !tbaa !12
  %16 = icmp ne ptr %15, null
  br i1 %16, label %17, label %22

17:                                               ; preds = %2
  %18 = load ptr, ptr %4, align 8, !tbaa !4
  %19 = getelementptr inbounds nuw %struct.DOVIContext, ptr %18, i32 0, i32 5
  %20 = load ptr, ptr %19, align 8, !tbaa !22
  %21 = icmp ne ptr %20, null
  br i1 %21, label %23, label %22

22:                                               ; preds = %17, %2
  store i32 0, ptr %3, align 4
  store i32 1, ptr %8, align 4
  br label %115

23:                                               ; preds = %17
  %24 = call ptr @av_dovi_metadata_alloc(ptr noundef %7)
  store ptr %24, ptr %6, align 8, !tbaa !23
  %25 = load ptr, ptr %6, align 8, !tbaa !23
  %26 = icmp ne ptr %25, null
  br i1 %26, label %28, label %27

27:                                               ; preds = %23
  store i32 -12, ptr %3, align 4
  store i32 1, ptr %8, align 4
  br label %115

28:                                               ; preds = %23
  %29 = load ptr, ptr %6, align 8, !tbaa !23
  %30 = call ptr @av_dovi_get_header(ptr noundef %29)
  %31 = load ptr, ptr %4, align 8, !tbaa !4
  %32 = getelementptr inbounds nuw %struct.DOVIContext, ptr %31, i32 0, i32 3
  call void @llvm.memcpy.p0.p0.i64(ptr align 2 %30, ptr align 2 %32, i64 19, i1 false)
  %33 = load ptr, ptr %6, align 8, !tbaa !23
  %34 = call ptr @av_dovi_get_mapping(ptr noundef %33)
  %35 = load ptr, ptr %4, align 8, !tbaa !4
  %36 = getelementptr inbounds nuw %struct.DOVIContext, ptr %35, i32 0, i32 4
  %37 = load ptr, ptr %36, align 8, !tbaa !12
  call void @llvm.memcpy.p0.p0.i64(ptr align 8 %34, ptr align 8 %37, i64 5140, i1 false)
  %38 = load ptr, ptr %6, align 8, !tbaa !23
  %39 = call ptr @av_dovi_get_color(ptr noundef %38)
  %40 = load ptr, ptr %4, align 8, !tbaa !4
  %41 = getelementptr inbounds nuw %struct.DOVIContext, ptr %40, i32 0, i32 5
  %42 = load ptr, ptr %41, align 8, !tbaa !22
  call void @llvm.memcpy.p0.p0.i64(ptr align 4 %39, ptr align 4 %42, i64 194, i1 false)
  %43 = load ptr, ptr %4, align 8, !tbaa !4
  %44 = getelementptr inbounds nuw %struct.DOVIContext, ptr %43, i32 0, i32 6
  %45 = load ptr, ptr %44, align 8, !tbaa !25
  %46 = icmp ne ptr %45, null
  br i1 %46, label %47, label %110

47:                                               ; preds = %28
  call void @llvm.lifetime.start.p0(i64 8, ptr %9) #9
  %48 = load ptr, ptr %4, align 8, !tbaa !4
  %49 = getelementptr inbounds nuw %struct.DOVIContext, ptr %48, i32 0, i32 6
  %50 = load ptr, ptr %49, align 8, !tbaa !25
  store ptr %50, ptr %9, align 8, !tbaa !26
  call void @llvm.lifetime.start.p0(i64 8, ptr %10) #9
  %51 = load ptr, ptr %6, align 8, !tbaa !23
  %52 = getelementptr inbounds nuw %struct.AVDOVIMetadata, ptr %51, i32 0, i32 4
  %53 = load i64, ptr %52, align 8, !tbaa !27
  %54 = icmp ugt i64 76, %53
  br i1 %54, label %55, label %59

55:                                               ; preds = %47
  %56 = load ptr, ptr %6, align 8, !tbaa !23
  %57 = getelementptr inbounds nuw %struct.AVDOVIMetadata, ptr %56, i32 0, i32 4
  %58 = load i64, ptr %57, align 8, !tbaa !27
  br label %60

59:                                               ; preds = %47
  br label %60

60:                                               ; preds = %59, %55
  %61 = phi i64 [ %58, %55 ], [ 76, %59 ]
  store i64 %61, ptr %10, align 8, !tbaa !30
  call void @llvm.lifetime.start.p0(i64 4, ptr %11) #9
  store i32 0, ptr %11, align 4, !tbaa !31
  br label %62

62:                                               ; preds = %82, %60
  %63 = load i32, ptr %11, align 4, !tbaa !31
  %64 = load ptr, ptr %9, align 8, !tbaa !26
  %65 = getelementptr inbounds nuw %struct.DOVIExt, ptr %64, i32 0, i32 2
  %66 = load i32, ptr %65, align 4, !tbaa !32
  %67 = icmp slt i32 %63, %66
  br i1 %67, label %69, label %68

68:                                               ; preds = %62
  store i32 2, ptr %8, align 4
  call void @llvm.lifetime.end.p0(i64 4, ptr %11) #9
  br label %85

69:                                               ; preds = %62
  %70 = load ptr, ptr %6, align 8, !tbaa !23
  %71 = load ptr, ptr %6, align 8, !tbaa !23
  %72 = getelementptr inbounds nuw %struct.AVDOVIMetadata, ptr %71, i32 0, i32 5
  %73 = load i32, ptr %72, align 8, !tbaa !34
  %74 = add nsw i32 %73, 1
  store i32 %74, ptr %72, align 8, !tbaa !34
  %75 = call ptr @av_dovi_get_ext(ptr noundef %70, i32 noundef %73)
  %76 = load ptr, ptr %9, align 8, !tbaa !26
  %77 = getelementptr inbounds nuw %struct.DOVIExt, ptr %76, i32 0, i32 0
  %78 = load i32, ptr %11, align 4, !tbaa !31
  %79 = sext i32 %78 to i64
  %80 = getelementptr inbounds [7 x %struct.AVDOVIDmData], ptr %77, i64 0, i64 %79
  %81 = load i64, ptr %10, align 8, !tbaa !30
  call void @llvm.memcpy.p0.p0.i64(ptr align 4 %75, ptr align 4 %80, i64 %81, i1 false)
  br label %82

82:                                               ; preds = %69
  %83 = load i32, ptr %11, align 4, !tbaa !31
  %84 = add nsw i32 %83, 1
  store i32 %84, ptr %11, align 4, !tbaa !31
  br label %62, !llvm.loop !35

85:                                               ; preds = %68
  call void @llvm.lifetime.start.p0(i64 4, ptr %12) #9
  store i32 0, ptr %12, align 4, !tbaa !31
  br label %86

86:                                               ; preds = %106, %85
  %87 = load i32, ptr %12, align 4, !tbaa !31
  %88 = load ptr, ptr %9, align 8, !tbaa !26
  %89 = getelementptr inbounds nuw %struct.DOVIExt, ptr %88, i32 0, i32 3
  %90 = load i32, ptr %89, align 4, !tbaa !37
  %91 = icmp slt i32 %87, %90
  br i1 %91, label %93, label %92

92:                                               ; preds = %86
  store i32 5, ptr %8, align 4
  call void @llvm.lifetime.end.p0(i64 4, ptr %12) #9
  br label %109

93:                                               ; preds = %86
  %94 = load ptr, ptr %6, align 8, !tbaa !23
  %95 = load ptr, ptr %6, align 8, !tbaa !23
  %96 = getelementptr inbounds nuw %struct.AVDOVIMetadata, ptr %95, i32 0, i32 5
  %97 = load i32, ptr %96, align 8, !tbaa !34
  %98 = add nsw i32 %97, 1
  store i32 %98, ptr %96, align 8, !tbaa !34
  %99 = call ptr @av_dovi_get_ext(ptr noundef %94, i32 noundef %97)
  %100 = load ptr, ptr %9, align 8, !tbaa !26
  %101 = getelementptr inbounds nuw %struct.DOVIExt, ptr %100, i32 0, i32 1
  %102 = load i32, ptr %12, align 4, !tbaa !31
  %103 = sext i32 %102 to i64
  %104 = getelementptr inbounds [25 x %struct.AVDOVIDmData], ptr %101, i64 0, i64 %103
  %105 = load i64, ptr %10, align 8, !tbaa !30
  call void @llvm.memcpy.p0.p0.i64(ptr align 4 %99, ptr align 4 %104, i64 %105, i1 false)
  br label %106

106:                                              ; preds = %93
  %107 = load i32, ptr %12, align 4, !tbaa !31
  %108 = add nsw i32 %107, 1
  store i32 %108, ptr %12, align 4, !tbaa !31
  br label %86, !llvm.loop !38

109:                                              ; preds = %92
  call void @llvm.lifetime.end.p0(i64 8, ptr %10) #9
  call void @llvm.lifetime.end.p0(i64 8, ptr %9) #9
  br label %110

110:                                              ; preds = %109, %28
  %111 = load ptr, ptr %6, align 8, !tbaa !23
  %112 = load ptr, ptr %5, align 8, !tbaa !9
  store ptr %111, ptr %112, align 8, !tbaa !23
  %113 = load i64, ptr %7, align 8, !tbaa !30
  %114 = trunc i64 %113 to i32
  store i32 %114, ptr %3, align 4
  store i32 1, ptr %8, align 4
  br label %115

115:                                              ; preds = %110, %27, %22
  call void @llvm.lifetime.end.p0(i64 8, ptr %7) #9
  call void @llvm.lifetime.end.p0(i64 8, ptr %6) #9
  %116 = load i32, ptr %3, align 4
  ret i32 %116
}