; Function Attrs: nounwind uwtable
define i32 @ff_dovi_get_metadata(ptr noundef readonly captures(none) %0, ptr noundef writeonly captures(none) %1) local_unnamed_addr #0 {
  %3 = alloca i64, align 8
  call void @llvm.lifetime.start.p0(i64 8, ptr nonnull %3) #8
  %4 = getelementptr inbounds nuw i8, ptr %0, i64 48
  %5 = load ptr, ptr %4, align 8, !tbaa !4
  %.not = icmp eq ptr %5, null
  br i1 %.not, label %67, label %6

6:                                                ; preds = %2
  %7 = getelementptr inbounds nuw i8, ptr %0, i64 56
  %8 = load ptr, ptr %7, align 8, !tbaa !17
  %.not36 = icmp eq ptr %8, null
  br i1 %.not36, label %67, label %9

9:                                                ; preds = %6
  %10 = call ptr @av_dovi_metadata_alloc(ptr noundef nonnull %3) #8
  %.not37 = icmp eq ptr %10, null
  br i1 %.not37, label %67, label %11

11:                                               ; preds = %9
  %12 = load i64, ptr %10, align 8, !tbaa !18
  %13 = getelementptr inbounds nuw i8, ptr %10, i64 %12
  %14 = getelementptr inbounds nuw i8, ptr %0, i64 22
  call void @llvm.memcpy.p0.p0.i64(ptr noundef nonnull align 2 dereferenceable(19) %13, ptr noundef nonnull align 2 dereferenceable(19) %14, i64 19, i1 false)
  %15 = getelementptr inbounds nuw i8, ptr %10, i64 8
  %16 = load i64, ptr %15, align 8, !tbaa !21
  %17 = getelementptr inbounds nuw i8, ptr %10, i64 %16
  %18 = load ptr, ptr %4, align 8, !tbaa !4
  call void @llvm.memcpy.p0.p0.i64(ptr noundef nonnull align 8 dereferenceable(5140) %17, ptr noundef nonnull align 8 dereferenceable(5140) %18, i64 5140, i1 false)
  %19 = getelementptr inbounds nuw i8, ptr %10, i64 16
  %20 = load i64, ptr %19, align 8, !tbaa !22
  %21 = getelementptr inbounds nuw i8, ptr %10, i64 %20
  %22 = load ptr, ptr %7, align 8, !tbaa !17
  call void @llvm.memcpy.p0.p0.i64(ptr noundef nonnull align 4 dereferenceable(194) %21, ptr noundef nonnull align 4 dereferenceable(194) %22, i64 194, i1 false)
  %23 = getelementptr inbounds nuw i8, ptr %0, i64 64
  %24 = load ptr, ptr %23, align 8, !tbaa !23
  %.not38 = icmp eq ptr %24, null
  br i1 %.not38, label %.loopexit, label %25

25:                                               ; preds = %11
  %26 = getelementptr inbounds nuw i8, ptr %10, i64 32
  %27 = load i64, ptr %26, align 8, !tbaa !24
  %spec.select = call i64 @llvm.umin.i64(i64 %27, i64 76)
  %28 = getelementptr inbounds nuw i8, ptr %24, i64 2432
  %29 = load i32, ptr %28, align 4, !tbaa !25
  %30 = icmp sgt i32 %29, 0
  br i1 %30, label %.lr.ph, label %.preheader

.lr.ph:                                           ; preds = %25
  %31 = getelementptr inbounds nuw i8, ptr %10, i64 40
  %32 = getelementptr inbounds nuw i8, ptr %10, i64 24
  br label %39

.preheader:                                       ; preds = %39, %25
  %33 = getelementptr inbounds nuw i8, ptr %24, i64 2436
  %34 = load i32, ptr %33, align 4, !tbaa !27
  %35 = icmp sgt i32 %34, 0
  br i1 %35, label %.lr.ph41, label %.loopexit

.lr.ph41:                                         ; preds = %.preheader
  %36 = getelementptr inbounds nuw i8, ptr %10, i64 40
  %37 = getelementptr inbounds nuw i8, ptr %10, i64 24
  %38 = getelementptr inbounds nuw i8, ptr %24, i64 532
  br label %52

39:                                               ; preds = %.lr.ph, %39
  %indvars.iv = phi i64 [ 0, %.lr.ph ], [ %indvars.iv.next, %39 ]
  %40 = load i32, ptr %31, align 8, !tbaa !28
  %41 = add nsw i32 %40, 1
  store i32 %41, ptr %31, align 8, !tbaa !28
  %42 = load i64, ptr %32, align 8, !tbaa !29
  %43 = getelementptr inbounds nuw i8, ptr %10, i64 %42
  %44 = load i64, ptr %26, align 8, !tbaa !24
  %45 = sext i32 %40 to i64
  %46 = mul i64 %44, %45
  %47 = getelementptr inbounds nuw i8, ptr %43, i64 %46
  %48 = getelementptr inbounds nuw [7 x %struct.AVDOVIDmData], ptr %24, i64 0, i64 %indvars.iv
  call void @llvm.memcpy.p0.p0.i64(ptr nonnull align 4 %47, ptr nonnull align 4 %48, i64 %spec.select, i1 false)
  %indvars.iv.next = add nuw nsw i64 %indvars.iv, 1
  %49 = load i32, ptr %28, align 4, !tbaa !25
  %50 = sext i32 %49 to i64
  %51 = icmp slt i64 %indvars.iv.next, %50
  br i1 %51, label %39, label %.preheader, !llvm.loop !30

52:                                               ; preds = %.lr.ph41, %52
  %indvars.iv43 = phi i64 [ 0, %.lr.ph41 ], [ %indvars.iv.next44, %52 ]
  %53 = load i32, ptr %36, align 8, !tbaa !28
  %54 = add nsw i32 %53, 1
  store i32 %54, ptr %36, align 8, !tbaa !28
  %55 = load i64, ptr %37, align 8, !tbaa !29
  %56 = getelementptr inbounds nuw i8, ptr %10, i64 %55
  %57 = load i64, ptr %26, align 8, !tbaa !24
  %58 = sext i32 %53 to i64
  %59 = mul i64 %57, %58
  %60 = getelementptr inbounds nuw i8, ptr %56, i64 %59
  %61 = getelementptr inbounds nuw [25 x %struct.AVDOVIDmData], ptr %38, i64 0, i64 %indvars.iv43
  call void @llvm.memcpy.p0.p0.i64(ptr nonnull align 4 %60, ptr nonnull align 4 %61, i64 %spec.select, i1 false)
  %indvars.iv.next44 = add nuw nsw i64 %indvars.iv43, 1
  %62 = load i32, ptr %33, align 4, !tbaa !27
  %63 = sext i32 %62 to i64
  %64 = icmp slt i64 %indvars.iv.next44, %63
  br i1 %64, label %52, label %.loopexit, !llvm.loop !32

.loopexit:                                        ; preds = %52, %.preheader, %11
  store ptr %10, ptr %1, align 8, !tbaa !33
  %65 = load i64, ptr %3, align 8, !tbaa !35
  %66 = trunc i64 %65 to i32
  br label %67

67:                                               ; preds = %9, %2, %6, %.loopexit
  %.032 = phi i32 [ %66, %.loopexit ], [ 0, %6 ], [ 0, %2 ], [ -12, %9 ]
  call void @llvm.lifetime.end.p0(i64 8, ptr nonnull %3) #8
  ret i32 %.032
}